target datalayout = "e-m:e-p270:32:32-p271:32:32-p272:64:64-i64:64-i128:128-f80:128-n8:16:32:64-S128"
target triple = "x86_64-pc-linux-gnu"

%struct.pmix_proc = type { [256 x i8], i32 }

; Function Attrs: inlinehint nounwind uwtable
define internal void @pmix_strncpy(ptr noundef %0, ptr noundef %1, i64 noundef %2) #1 {
  %4 = alloca ptr, align 8
  %5 = alloca ptr, align 8
  %6 = alloca i64, align 8
  %7 = alloca i64, align 8
  store ptr %0, ptr %4, align 8, !tbaa !3
  store ptr %1, ptr %5, align 8, !tbaa !3
  store i64 %2, ptr %6, align 8, !tbaa !30
  call void @llvm.lifetime.start.p0(i64 8, ptr %7) #15
  store i64 0, ptr %7, align 8, !tbaa !30
  br label %8

8:                                                ; preds = %22, %3
  %9 = load i64, ptr %7, align 8, !tbaa !30
  %10 = load i64, ptr %6, align 8, !tbaa !30
  %11 = icmp ult i64 %9, %10
  br i1 %11, label %12, label %29

12:                                               ; preds = %8
  %13 = load ptr, ptr %5, align 8, !tbaa !3
  %14 = load i8, ptr %13, align 1, !tbaa !29
  %15 = load ptr, ptr %4, align 8, !tbaa !3
  store i8 %14, ptr %15, align 1, !tbaa !29
  %16 = load ptr, ptr %5, align 8, !tbaa !3
  %17 = load i8, ptr %16, align 1, !tbaa !29
  %18 = sext i8 %17 to i32
  %19 = icmp eq i32 0, %18
  br i1 %19, label %20, label %21

20:                                               ; preds = %12
  br label %29

21:                                               ; preds = %12
  br label %22

22:                                               ; preds = %21
  %23 = load i64, ptr %7, align 8, !tbaa !30
  %24 = add i64 %23, 1
  store i64 %24, ptr %7, align 8, !tbaa !30
  %25 = load ptr, ptr %5, align 8, !tbaa !3
  %26 = getelementptr inbounds nuw i8, ptr %25, i32 1
  store ptr %26, ptr %5, align 8, !tbaa !3
  %27 = load ptr, ptr %4, align 8, !tbaa !3
  %28 = getelementptr inbounds nuw i8, ptr %27, i32 1
  store ptr %28, ptr %4, align 8, !tbaa !3
  br label %8, !llvm.loop !224

29:                                               ; preds = %20, %8
  %30 = load ptr, ptr %4, align 8, !tbaa !3
  store i8 0, ptr %30, align 1, !tbaa !29
  call void @llvm.lifetime.end.p0(i64 8, ptr %7) #15
  ret void
}

; Function Attrs: inlinehint nounwind uwtable
define internal void @pmix_bfrops_base_tma_load_nspace(ptr noundef %0, ptr noundef %1, ptr noundef %2) #1 {
  %4 = alloca ptr, align 8
  %5 = alloca ptr, align 8
  %6 = alloca ptr, align 8
  store ptr %0, ptr %4, align 8, !tbaa !3
  store ptr %1, ptr %5, align 8, !tbaa !3
  store ptr %2, ptr %6, align 8, !tbaa !8
  %7 = load ptr, ptr %4, align 8, !tbaa !3
  call void @llvm.memset.p0.i64(ptr align 1 %7, i8 0, i64 256, i1 false)
  %8 = load ptr, ptr %5, align 8, !tbaa !3
  %9 = icmp ne ptr null, %8
  br i1 %9, label %10, label %13

10:                                               ; preds = %3
  %11 = load ptr, ptr %4, align 8, !tbaa !3
  %12 = load ptr, ptr %5, align 8, !tbaa !3
  call void @pmix_strncpy(ptr noundef %11, ptr noundef %12, i64 noundef 255)
  br label %13

13:                                               ; preds = %10, %3
  ret void
}

; Function Attrs: inlinehint nounwind uwtable
define internal void @pmix_bfrops_base_tma_load_procid(ptr noundef %0, ptr noundef %1, i32 noundef %2, ptr noundef %3) #1 {
  %5 = alloca ptr, align 8
  %6 = alloca ptr, align 8
  %7 = alloca i32, align 4
  %8 = alloca ptr, align 8
  store ptr %0, ptr %5, align 8, !tbaa !10
  store ptr %1, ptr %6, align 8, !tbaa !3
  store i32 %2, ptr %7, align 4, !tbaa !12
  store ptr %3, ptr %8, align 8, !tbaa !8
  %9 = load ptr, ptr %5, align 8, !tbaa !10
  %10 = getelementptr inbounds nuw %struct.pmix_proc, ptr %9, i32 0, i32 0
  %11 = getelementptr inbounds [256 x i8], ptr %10, i64 0, i64 0
  %12 = load ptr, ptr %6, align 8, !tbaa !3
  %13 = load ptr, ptr %8, align 8, !tbaa !8
  call void @pmix_bfrops_base_tma_load_nspace(ptr noundef %11, ptr noundef %12, ptr noundef %13)
  %14 = load i32, ptr %7, align 4, !tbaa !12
  %15 = load ptr, ptr %5, align 8, !tbaa !10
  %16 = getelementptr inbounds nuw %struct.pmix_proc, ptr %15, i32 0, i32 1
  store i32 %14, ptr %16, align 4, !tbaa !14
  ret void
}

; Function Attrs: inlinehint nounwind uwtable
define internal void @pmix_bfrops_base_tma_proc_construct(ptr noundef %0, ptr noundef %1) #1 {
  %3 = alloca ptr, align 8
  %4 = alloca ptr, align 8
  store ptr %0, ptr %3, align 8, !tbaa !10
  store ptr %1, ptr %4, align 8, !tbaa !8
  %5 = load ptr, ptr %3, align 8, !tbaa !10
  call void @llvm.memset.p0.i64(ptr align 4 %5, i8 0, i64 260, i1 false)
  %6 = load ptr, ptr %3, align 8, !tbaa !10
  %7 = getelementptr inbounds nuw %struct.pmix_proc, ptr %6, i32 0, i32 1
  store i32 -1, ptr %7, align 4, !tbaa !14
  ret void
}

; Function Attrs: inlinehint nounwind uwtable
define internal void @pmix_bfrops_base_tma_proc_load(ptr noundef %0, ptr noundef %1, i32 noundef %2, ptr noundef %3) #1 {
  %5 = alloca ptr, align 8
  %6 = alloca ptr, align 8
  %7 = alloca i32, align 4
  %8 = alloca ptr, align 8
  store ptr %0, ptr %5, align 8, !tbaa !10
  store ptr %1, ptr %6, align 8, !tbaa !3
  store i32 %2, ptr %7, align 4, !tbaa !12
  store ptr %3, ptr %8, align 8, !tbaa !8
  %9 = load ptr, ptr %5, align 8, !tbaa !10
  %10 = load ptr, ptr %8, align 8, !tbaa !8
  call void @pmix_bfrops_base_tma_proc_construct(ptr noundef %9, ptr noundef %10)
  %11 = load ptr, ptr %5, align 8, !tbaa !10
  %12 = load ptr, ptr %6, align 8, !tbaa !3
  %13 = load i32, ptr %7, align 4, !tbaa !12
  %14 = load ptr, ptr %8, align 8, !tbaa !8
  call void @pmix_bfrops_base_tma_load_procid(ptr noundef %11, ptr noundef %12, i32 noundef %13, ptr noundef %14)
  ret void
}

; Function Attrs: nounwind uwtable
define void @PMIx_Proc_load(ptr noundef %0, ptr noundef %1, i32 noundef %2) #0 {
  %4 = alloca ptr, align 8
  %5 = alloca ptr, align 8
  %6 = alloca i32, align 4
  store ptr %0, ptr %4, align 8, !tbaa !10
  store ptr %1, ptr %5, align 8, !tbaa !3
  store i32 %2, ptr %6, align 4, !tbaa !12
  %7 = load ptr, ptr %4, align 8, !tbaa !10
  %8 = load ptr, ptr %5, align 8, !tbaa !3
  %9 = load i32, ptr %6, align 4, !tbaa !12
  call void @pmix_bfrops_base_tma_proc_load(ptr noundef %7, ptr noundef %8, i32 noundef %9, ptr noundef null)
  ret void
}