; Function Attrs: nofree norecurse nosync nounwind memory(argmem: readwrite) uwtable
define void @PMIx_Proc_load(ptr noundef writeonly captures(none) initializes((0, 260)) %0, ptr noundef readonly captures(address_is_null) %1, i32 noundef %2) local_unnamed_addr #0 {
  %4 = getelementptr inbounds nuw i8, ptr %0, i64 256
  store i32 -1, ptr %4, align 4, !tbaa !9
  tail call void @llvm.memset.p0.i64(ptr noundef nonnull align 1 dereferenceable(256) %0, i8 0, i64 256, i1 false)
  %.not.i.i.i = icmp eq ptr %1, null
  br i1 %.not.i.i.i, label %pmix_bfrops_base_tma_proc_load.exit, label %.lr.ph.i.i.i.i

.lr.ph.i.i.i.i:                                   ; preds = %3, %7
  %.012.i.i.i.i = phi i64 [ %8, %7 ], [ 0, %3 ]
  %.0811.i.i.i.i = phi ptr [ %10, %7 ], [ %0, %3 ]
  %.0910.i.i.i.i = phi ptr [ %9, %7 ], [ %1, %3 ]
  %5 = load i8, ptr %.0910.i.i.i.i, align 1, !tbaa !3
  store i8 %5, ptr %.0811.i.i.i.i, align 1, !tbaa !3
  %6 = icmp eq i8 %5, 0
  br i1 %6, label %pmix_strncpy.exit.i.i.i, label %7

7:                                                ; preds = %.lr.ph.i.i.i.i
  %8 = add nuw nsw i64 %.012.i.i.i.i, 1
  %9 = getelementptr inbounds nuw i8, ptr %.0910.i.i.i.i, i64 1
  %10 = getelementptr inbounds nuw i8, ptr %.0811.i.i.i.i, i64 1
  %exitcond.not.i.i.i.i = icmp eq i64 %8, 255
  br i1 %exitcond.not.i.i.i.i, label %pmix_strncpy.exit.i.i.i, label %.lr.ph.i.i.i.i, !llvm.loop !6

pmix_strncpy.exit.i.i.i:                          ; preds = %7, %.lr.ph.i.i.i.i
  %.08.lcssa.i.i.i.i = phi ptr [ %.0811.i.i.i.i, %.lr.ph.i.i.i.i ], [ %10, %7 ]
  store i8 0, ptr %.08.lcssa.i.i.i.i, align 1, !tbaa !3
  br label %pmix_bfrops_base_tma_proc_load.exit

pmix_bfrops_base_tma_proc_load.exit:              ; preds = %3, %pmix_strncpy.exit.i.i.i
  store i32 %2, ptr %4, align 4, !tbaa !9
  ret void
}